; Function Attrs: mustprogress uwtable
define noundef i32 @_ZN12colvarmodule18catch_input_errorsEi(ptr nocapture noundef nonnull readonly align 8 dereferenceable(616) %0, i32 noundef %1) local_unnamed_addr #3 align 2 personality ptr @__gxx_personality_v0 {
  %.not = icmp eq i32 %1, 0
  br i1 %.not, label %3, label %.split

.split:                                           ; preds = %2
  tail call void @_ZN12colvarmodule14set_error_bitsEi(i32 noundef %1)
  br label %19

3:                                                ; preds = %2
  %4 = load i32, ptr @_ZN12colvarmodule9errorCodeE, align 4
  %.not5 = icmp eq i32 %4, 0
  br i1 %.not5, label %37, label %.split3

.split3:                                          ; preds = %3
  %5 = load ptr, ptr @_ZN12colvarmodule5proxyE, align 8
  %6 = getelementptr inbounds i8, ptr %5, i64 768
  %7 = load ptr, ptr %6, align 8
  %8 = getelementptr inbounds i8, ptr %7, i64 64
  %9 = load ptr, ptr %8, align 8
  %10 = tail call noundef i32 %9(ptr noundef nonnull align 8 dereferenceable(24) %6)
  %11 = load i32, ptr @_ZN12colvarmodule9errorCodeE, align 4
  %12 = or i32 %11, 1
  store i32 %12, ptr @_ZN12colvarmodule9errorCodeE, align 4
  %13 = load ptr, ptr @_ZN12colvarmodule5proxyE, align 8
  %14 = getelementptr inbounds i8, ptr %13, i64 768
  %15 = load ptr, ptr %14, align 8
  %16 = getelementptr inbounds i8, ptr %15, i64 80
  %17 = load ptr, ptr %16, align 8
  %18 = tail call noundef i32 %17(ptr noundef nonnull align 8 dereferenceable(24) %14)
  br label %19

19:                                               ; preds = %.split3, %.split
  %20 = load ptr, ptr @_ZN12colvarmodule5proxyE, align 8
  %21 = getelementptr inbounds i8, ptr %20, i64 768
  %22 = load ptr, ptr %21, align 8
  %23 = getelementptr inbounds i8, ptr %22, i64 64
  %24 = load ptr, ptr %23, align 8
  %25 = tail call noundef i32 %24(ptr noundef nonnull align 8 dereferenceable(24) %21)
  %26 = load i32, ptr @_ZN12colvarmodule9errorCodeE, align 4
  %27 = or i32 %26, 5
  store i32 %27, ptr @_ZN12colvarmodule9errorCodeE, align 4
  %28 = load ptr, ptr @_ZN12colvarmodule5proxyE, align 8
  %29 = getelementptr inbounds i8, ptr %28, i64 768
  %30 = load ptr, ptr %29, align 8
  %31 = getelementptr inbounds i8, ptr %30, i64 80
  %32 = load ptr, ptr %31, align 8
  %33 = tail call noundef i32 %32(ptr noundef nonnull align 8 dereferenceable(24) %29)
  %34 = getelementptr inbounds i8, ptr %0, i64 480
  %35 = load ptr, ptr %34, align 8
  tail call void @_ZN11colvarparse5clearEv(ptr noundef nonnull align 8 dereferenceable(320) %35)
  %36 = load i32, ptr @_ZN12colvarmodule9errorCodeE, align 4
  br label %37

37:                                               ; preds = %3, %19
  %.0 = phi i32 [ %36, %19 ], [ 0, %3 ]
  ret i32 %.0
}